target datalayout = "e-m:e-p270:32:32-p271:32:32-p272:64:64-i64:64-i128:128-f80:128-n8:16:32:64-S128"
target triple = "x86_64-pc-linux-gnu"

%"class.icu_77::UCharCharacterIterator" = type { %"class.icu_77::CharacterIterator", ptr }
%"class.icu_77::CharacterIterator" = type { %"class.icu_77::ForwardCharacterIterator", i32, i32, i32, i32 }
%"class.icu_77::ForwardCharacterIterator" = type { %"class.icu_77::UObject" }
%"class.icu_77::UObject" = type { ptr }

; Function Attrs: mustprogress nounwind uwtable
define noundef i32 @_ZN6icu_7722UCharCharacterIterator10previous32Ev(ptr noundef nonnull align 8 dereferenceable(32) %0) unnamed_addr #0 align 2 {
  %2 = alloca i32, align 4
  %3 = alloca ptr, align 8
  %4 = alloca i32, align 4
  %5 = alloca i16, align 2
  store ptr %0, ptr %3, align 8, !tbaa !3
  %6 = load ptr, ptr %3, align 8
  %7 = getelementptr inbounds nuw %"class.icu_77::CharacterIterator", ptr %6, i32 0, i32 2
  %8 = load i32, ptr %7, align 4, !tbaa !23
  %9 = getelementptr inbounds nuw %"class.icu_77::CharacterIterator", ptr %6, i32 0, i32 3
  %10 = load i32, ptr %9, align 8, !tbaa !24
  %11 = icmp sgt i32 %8, %10
  br i1 %11, label %12, label %59

12:                                               ; preds = %1
  call void @llvm.lifetime.start.p0(i64 4, ptr %4) #7
  br label %13

13:                                               ; preds = %12
  %14 = getelementptr inbounds nuw %"class.icu_77::UCharCharacterIterator", ptr %6, i32 0, i32 1
  %15 = load ptr, ptr %14, align 8, !tbaa !10
  %16 = getelementptr inbounds nuw %"class.icu_77::CharacterIterator", ptr %6, i32 0, i32 2
  %17 = load i32, ptr %16, align 4, !tbaa !23
  %18 = add nsw i32 %17, -1
  store i32 %18, ptr %16, align 4, !tbaa !23
  %19 = sext i32 %18 to i64
  %20 = getelementptr inbounds i16, ptr %15, i64 %19
  %21 = load i16, ptr %20, align 2, !tbaa !28
  %22 = zext i16 %21 to i32
  store i32 %22, ptr %4, align 4, !tbaa !19
  %23 = load i32, ptr %4, align 4, !tbaa !19
  %24 = and i32 %23, -1024
  %25 = icmp eq i32 %24, 56320
  br i1 %25, label %26, label %55

26:                                               ; preds = %13
  call void @llvm.lifetime.start.p0(i64 2, ptr %5) #7
  %27 = getelementptr inbounds nuw %"class.icu_77::CharacterIterator", ptr %6, i32 0, i32 2
  %28 = load i32, ptr %27, align 4, !tbaa !23
  %29 = getelementptr inbounds nuw %"class.icu_77::CharacterIterator", ptr %6, i32 0, i32 3
  %30 = load i32, ptr %29, align 8, !tbaa !24
  %31 = icmp sgt i32 %28, %30
  br i1 %31, label %32, label %54

32:                                               ; preds = %26
  %33 = getelementptr inbounds nuw %"class.icu_77::UCharCharacterIterator", ptr %6, i32 0, i32 1
  %34 = load ptr, ptr %33, align 8, !tbaa !10
  %35 = getelementptr inbounds nuw %"class.icu_77::CharacterIterator", ptr %6, i32 0, i32 2
  %36 = load i32, ptr %35, align 4, !tbaa !23
  %37 = sub nsw i32 %36, 1
  %38 = sext i32 %37 to i64
  %39 = getelementptr inbounds i16, ptr %34, i64 %38
  %40 = load i16, ptr %39, align 2, !tbaa !28
  store i16 %40, ptr %5, align 2, !tbaa !30
  %41 = zext i16 %40 to i32
  %42 = and i32 %41, -1024
  %43 = icmp eq i32 %42, 55296
  br i1 %43, label %44, label %54

44:                                               ; preds = %32
  %45 = getelementptr inbounds nuw %"class.icu_77::CharacterIterator", ptr %6, i32 0, i32 2
  %46 = load i32, ptr %45, align 4, !tbaa !23
  %47 = add nsw i32 %46, -1
  store i32 %47, ptr %45, align 4, !tbaa !23
  %48 = load i16, ptr %5, align 2, !tbaa !30
  %49 = zext i16 %48 to i32
  %50 = shl i32 %49, 10
  %51 = load i32, ptr %4, align 4, !tbaa !19
  %52 = add nsw i32 %50, %51
  %53 = sub nsw i32 %52, 56613888
  store i32 %53, ptr %4, align 4, !tbaa !19
  br label %54

54:                                               ; preds = %44, %32, %26
  call void @llvm.lifetime.end.p0(i64 2, ptr %5) #7
  br label %55

55:                                               ; preds = %54, %13
  br label %56

56:                                               ; preds = %55
  br label %57

57:                                               ; preds = %56
  %58 = load i32, ptr %4, align 4, !tbaa !19
  store i32 %58, ptr %2, align 4
  call void @llvm.lifetime.end.p0(i64 4, ptr %4) #7
  br label %60

59:                                               ; preds = %1
  store i32 65535, ptr %2, align 4
  br label %60

60:                                               ; preds = %59, %57
  %61 = load i32, ptr %2, align 4
  ret i32 %61
}