; Function Attrs: mustprogress nofree norecurse nosync nounwind willreturn memory(read, argmem: readwrite, inaccessiblemem: none) uwtable
define noundef range(i32 0, 10559488) i32 @_ZN6icu_7722UCharCharacterIterator10previous32Ev(ptr noundef nonnull align 8 captures(none) dereferenceable(32) %0) unnamed_addr #7 align 2 {
  %2 = getelementptr inbounds nuw i8, ptr %0, i64 12
  %3 = load i32, ptr %2, align 4, !tbaa !22
  %4 = getelementptr inbounds nuw i8, ptr %0, i64 16
  %5 = load i32, ptr %4, align 8, !tbaa !23
  %6 = icmp sgt i32 %3, %5
  br i1 %6, label %7, label %31

7:                                                ; preds = %1
  %8 = getelementptr inbounds nuw i8, ptr %0, i64 24
  %9 = load ptr, ptr %8, align 8, !tbaa !6
  %10 = add nsw i32 %3, -1
  store i32 %10, ptr %2, align 4, !tbaa !22
  %11 = sext i32 %10 to i64
  %12 = getelementptr inbounds i16, ptr %9, i64 %11
  %13 = load i16, ptr %12, align 2, !tbaa !25
  %14 = zext i16 %13 to i32
  %15 = and i32 %14, 64512
  %16 = icmp eq i32 %15, 56320
  %17 = icmp sgt i32 %10, %5
  %or.cond = and i1 %17, %16
  br i1 %or.cond, label %18, label %31

18:                                               ; preds = %7
  %19 = sext i32 %3 to i64
  %20 = getelementptr i16, ptr %9, i64 %19
  %21 = getelementptr i8, ptr %20, i64 -4
  %22 = load i16, ptr %21, align 2, !tbaa !25
  %23 = zext i16 %22 to i32
  %24 = and i32 %23, 64512
  %25 = icmp eq i32 %24, 55296
  br i1 %25, label %26, label %31

26:                                               ; preds = %18
  %27 = add nsw i32 %3, -2
  store i32 %27, ptr %2, align 4, !tbaa !22
  %28 = shl nuw nsw i32 %23, 10
  %29 = add nuw nsw i32 %14, -56613888
  %30 = add nsw i32 %29, %28
  br label %31

31:                                               ; preds = %1, %7, %26, %18
  %.0 = phi i32 [ %14, %7 ], [ %30, %26 ], [ %14, %18 ], [ 65535, %1 ]
  ret i32 %.0
}